target datalayout = "e-m:e-p270:32:32-p271:32:32-p272:64:64-i64:64-i128:128-f80:128-n8:16:32:64-S128"
target triple = "x86_64-pc-linux-gnu"

%struct.strbuf = type { i64, i64, ptr }

@.str.2 = private unnamed_addr constant [11 x i8] c"objects/%s\00", align 1

; Function Attrs: nounwind uwtable
define dso_local i32 @safe_create_leading_directories(ptr noundef %0) #0 {
  %2 = alloca ptr, align 8
  store ptr %0, ptr %2, align 8, !tbaa !12
  %3 = load ptr, ptr %2, align 8, !tbaa !12
  %4 = call i32 @safe_create_leading_directories_1(ptr noundef %3, i32 noundef 1)
  ret i32 %4
}

; Function Attrs: nounwind uwtable
define dso_local i32 @odb_mkstemp(ptr noundef %0, ptr noundef %1) #0 {
  %3 = alloca i32, align 4
  %4 = alloca ptr, align 8
  %5 = alloca ptr, align 8
  %6 = alloca i32, align 4
  %7 = alloca i32, align 4
  %8 = alloca i32, align 4
  store ptr %0, ptr %4, align 8, !tbaa !62
  store ptr %1, ptr %5, align 8, !tbaa !12
  call void @llvm.lifetime.start.p0(i64 4, ptr %6) #14
  call void @llvm.lifetime.start.p0(i64 4, ptr %7) #14
  store i32 292, ptr %7, align 4, !tbaa !43
  %9 = load ptr, ptr %4, align 8, !tbaa !62
  %10 = load ptr, ptr %5, align 8, !tbaa !12
  %11 = call ptr (ptr, ptr, ...) @git_path_buf(ptr noundef %9, ptr noundef @.str.2, ptr noundef %10)
  %12 = load ptr, ptr %4, align 8, !tbaa !62
  %13 = getelementptr inbounds nuw %struct.strbuf, ptr %12, i32 0, i32 2
  %14 = load ptr, ptr %13, align 8, !tbaa !56
  %15 = load i32, ptr %7, align 4, !tbaa !43
  %16 = call i32 @git_mkstemp_mode(ptr noundef %14, i32 noundef %15)
  store i32 %16, ptr %6, align 4, !tbaa !43
  %17 = load i32, ptr %6, align 4, !tbaa !43
  %18 = icmp sle i32 0, %17
  br i1 %18, label %19, label %21

19:                                               ; preds = %2
  %20 = load i32, ptr %6, align 4, !tbaa !43
  store i32 %20, ptr %3, align 4
  store i32 1, ptr %8, align 4
  br label %34

21:                                               ; preds = %2
  %22 = load ptr, ptr %4, align 8, !tbaa !62
  %23 = load ptr, ptr %5, align 8, !tbaa !12
  %24 = call ptr (ptr, ptr, ...) @git_path_buf(ptr noundef %22, ptr noundef @.str.2, ptr noundef %23)
  %25 = load ptr, ptr %4, align 8, !tbaa !62
  %26 = getelementptr inbounds nuw %struct.strbuf, ptr %25, i32 0, i32 2
  %27 = load ptr, ptr %26, align 8, !tbaa !56
  %28 = call i32 @safe_create_leading_directories(ptr noundef %27)
  %29 = load ptr, ptr %4, align 8, !tbaa !62
  %30 = getelementptr inbounds nuw %struct.strbuf, ptr %29, i32 0, i32 2
  %31 = load ptr, ptr %30, align 8, !tbaa !56
  %32 = load i32, ptr %7, align 4, !tbaa !43
  %33 = call i32 @xmkstemp_mode(ptr noundef %31, i32 noundef %32)
  store i32 %33, ptr %3, align 4
  store i32 1, ptr %8, align 4
  br label %34

34:                                               ; preds = %21, %19
  call void @llvm.lifetime.end.p0(i64 4, ptr %7) #14
  call void @llvm.lifetime.end.p0(i64 4, ptr %6) #14
  %35 = load i32, ptr %3, align 4
  ret i32 %35
}