; Function Attrs: nounwind uwtable
define dso_local i32 @odb_mkstemp(ptr noundef initializes((8, 16)) %0, ptr noundef %1) local_unnamed_addr #1 {
  tail call void (ptr, ptr, ...) @git_path_buf(ptr noundef %0, ptr nonnull poison, ptr noundef %1)
  %3 = getelementptr inbounds nuw i8, ptr %0, i64 16
  %4 = load ptr, ptr %3, align 8, !tbaa !49
  %5 = tail call i32 @git_mkstemp_mode(ptr noundef %4, i32 noundef 292) #27
  %6 = icmp sgt i32 %5, -1
  br i1 %6, label %12, label %7

7:                                                ; preds = %2
  tail call void (ptr, ptr, ...) @git_path_buf(ptr noundef nonnull %0, ptr nonnull poison, ptr noundef %1)
  %8 = load ptr, ptr %3, align 8, !tbaa !49
  %9 = tail call fastcc range(i32 -4, 1) i32 @safe_create_leading_directories_1(ptr noundef %8, i32 noundef 1)
  %10 = load ptr, ptr %3, align 8, !tbaa !49
  %11 = tail call i32 @xmkstemp_mode(ptr noundef %10, i32 noundef 292) #27
  br label %12

12:                                               ; preds = %2, %7
  %.0 = phi i32 [ %11, %7 ], [ %5, %2 ]
  ret i32 %.0
}